target datalayout = "e-m:e-p270:32:32-p271:32:32-p272:64:64-i64:64-i128:128-f80:128-n8:16:32:64-S128"
target triple = "x86_64-pc-linux-gnu"

%"class.icu_77::LocalPointerBase" = type { ptr }
%"class.icu_77::(anonymous namespace)::MutableCodePointTrie" = type { ptr, i32, i32, ptr, i32, i32, i32, i32, i32, i32, i32, i32, ptr, [69632 x i8] }

; Function Attrs: mustprogress nounwind uwtable
define internal void @_ZN6icu_7716LocalPointerBaseINS_12_GLOBAL__N_120MutableCodePointTrieEED2Ev(ptr noundef nonnull align 8 dereferenceable(8) %0) unnamed_addr #4 align 2 {
  %2 = alloca ptr, align 8
  store ptr %0, ptr %2, align 8, !tbaa !31
  ret void
}

; Function Attrs: mustprogress nounwind uwtable
define internal void @_ZN6icu_7712_GLOBAL__N_120MutableCodePointTrieD2Ev(ptr noundef nonnull align 8 dereferenceable(69696) %0) unnamed_addr #4 align 2 personality ptr @__gxx_personality_v0 {
  %2 = alloca ptr, align 8
  store ptr %0, ptr %2, align 8, !tbaa !11
  %3 = load ptr, ptr %2, align 8
  %4 = getelementptr inbounds nuw %"class.icu_77::(anonymous namespace)::MutableCodePointTrie", ptr %3, i32 0, i32 0
  %5 = load ptr, ptr %4, align 8, !tbaa !13
  invoke void @uprv_free_77(ptr noundef %5)
          to label %6 unwind label %13

6:                                                ; preds = %1
  %7 = getelementptr inbounds nuw %"class.icu_77::(anonymous namespace)::MutableCodePointTrie", ptr %3, i32 0, i32 3
  %8 = load ptr, ptr %7, align 8, !tbaa !19
  invoke void @uprv_free_77(ptr noundef %8)
          to label %9 unwind label %13

9:                                                ; preds = %6
  %10 = getelementptr inbounds nuw %"class.icu_77::(anonymous namespace)::MutableCodePointTrie", ptr %3, i32 0, i32 12
  %11 = load ptr, ptr %10, align 8, !tbaa !28
  invoke void @uprv_free_77(ptr noundef %11)
          to label %12 unwind label %13

12:                                               ; preds = %9
  ret void

13:                                               ; preds = %9, %6, %1
  %14 = landingpad { ptr, i32 }
          catch ptr null
  %15 = extractvalue { ptr, i32 } %14, 0
  call void @__clang_call_terminate(ptr %15) #13
  unreachable
}

; Function Attrs: mustprogress nounwind uwtable
define internal void @_ZN6icu_7712LocalPointerINS_12_GLOBAL__N_120MutableCodePointTrieEED2Ev(ptr noundef nonnull align 8 dereferenceable(8) %0) unnamed_addr #4 align 2 {
  %2 = alloca ptr, align 8
  store ptr %0, ptr %2, align 8, !tbaa !29
  %3 = load ptr, ptr %2, align 8
  %4 = getelementptr inbounds nuw %"class.icu_77::LocalPointerBase", ptr %3, i32 0, i32 0
  %5 = load ptr, ptr %4, align 8, !tbaa !33
  %6 = icmp eq ptr %5, null
  br i1 %6, label %8, label %7

7:                                                ; preds = %1
  call void @_ZN6icu_7712_GLOBAL__N_120MutableCodePointTrieD2Ev(ptr noundef nonnull align 8 dereferenceable(69696) %5) #11
  call void @_ZN6icu_777UMemorydlEPv(ptr noundef %5) #11
  br label %8

8:                                                ; preds = %7, %1
  call void @_ZN6icu_7716LocalPointerBaseINS_12_GLOBAL__N_120MutableCodePointTrieEED2Ev(ptr noundef nonnull align 8 dereferenceable(8) %3) #11
  ret void
}