; Function Attrs: mustprogress nounwind uwtable
define internal fastcc void @_ZN6icu_7712LocalPointerINS_12_GLOBAL__N_120MutableCodePointTrieEED2Ev(ptr %.0.val) unnamed_addr #3 align 2 personality ptr @__gxx_personality_v0 {
  %1 = icmp eq ptr %.0.val, null
  br i1 %1, label %13, label %2

2:                                                ; preds = %0
  %3 = load ptr, ptr %.0.val, align 8, !tbaa !7
  invoke void @uprv_free_77(ptr noundef %3)
          to label %4 unwind label %10

4:                                                ; preds = %2
  %5 = getelementptr inbounds nuw i8, ptr %.0.val, i64 16
  %6 = load ptr, ptr %5, align 8, !tbaa !22
  invoke void @uprv_free_77(ptr noundef %6)
          to label %7 unwind label %10

7:                                                ; preds = %4
  %8 = getelementptr inbounds nuw i8, ptr %.0.val, i64 56
  %9 = load ptr, ptr %8, align 8, !tbaa !21
  invoke void @uprv_free_77(ptr noundef %9)
          to label %_ZN6icu_7712_GLOBAL__N_120MutableCodePointTrieD2Ev.exit unwind label %10

10:                                               ; preds = %7, %4, %2
  %11 = landingpad { ptr, i32 }
          catch ptr null
  %12 = extractvalue { ptr, i32 } %11, 0
  tail call void @__clang_call_terminate(ptr %12) #15
  unreachable

_ZN6icu_7712_GLOBAL__N_120MutableCodePointTrieD2Ev.exit: ; preds = %7
  tail call void @_ZN6icu_777UMemorydlEPv(ptr noundef nonnull %.0.val) #13
  br label %13

13:                                               ; preds = %_ZN6icu_7712_GLOBAL__N_120MutableCodePointTrieD2Ev.exit, %0
  ret void
}